; ModuleID = 'source-C-CXX/57/180.c'
source_filename = "source-C-CXX/57/180.c"
target datalayout = "e-m:e-p270:32:32-p271:32:32-p272:64:64-i64:64-f80:128-n8:16:32:64-S128"
target triple = "x86_64-pc-linux-gnu"

%struct._IO_FILE = type { i32, i8*, i8*, i8*, i8*, i8*, i8*, i8*, i8*, i8*, i8*, i8*, %struct._IO_marker*, %struct._IO_FILE*, i32, i32, i64, i16, i8, [1 x i8], i8*, i64, %struct._IO_codecvt*, %struct._IO_wide_data*, %struct._IO_FILE*, i8*, i64, i32, [20 x i8] }
%struct._IO_marker = type opaque
%struct._IO_codecvt = type opaque
%struct._IO_wide_data = type opaque

@.str = private unnamed_addr constant [3 x i8] c"%d\00", align 1
@stdin = external local_unnamed_addr global %struct._IO_FILE*, align 8
@str.3 = private unnamed_addr constant [2 x i8] c"0\00", align 1
@str.6 = private unnamed_addr constant [2 x i8] c"1\00", align 1

; Function Attrs: nofree nounwind readonly sspstrong uwtable
define dso_local i32 @judge(i8* nocapture readonly %0) local_unnamed_addr #0 {
  %2 = tail call i64 @strlen(i8* noundef nonnull dereferenceable(1) %0) #8
  %3 = trunc i64 %2 to i32
  %4 = icmp sgt i32 %3, 0
  br i1 %4, label %5, label %24

5:                                                ; preds = %1
  %6 = and i64 %2, 4294967295
  br label %7

7:                                                ; preds = %5, %21
  %8 = phi i64 [ 0, %5 ], [ %22, %21 ]
  %9 = getelementptr inbounds i8, i8* %0, i64 %8
  %10 = load i8, i8* %9, align 1, !tbaa !5
  %11 = add i8 %10, -97
  %12 = icmp ult i8 %11, 26
  br i1 %12, label %21, label %13

13:                                               ; preds = %7
  %14 = add i8 %10, -65
  %15 = icmp ult i8 %14, 26
  %16 = icmp eq i8 %10, 95
  %17 = or i1 %16, %15
  %18 = add i8 %10, -48
  %19 = icmp ult i8 %18, 10
  %20 = or i1 %19, %17
  br i1 %20, label %21, label %24

21:                                               ; preds = %13, %7
  %22 = add nuw nsw i64 %8, 1
  %23 = icmp eq i64 %22, %6
  br i1 %23, label %24, label %7, !llvm.loop !8

24:                                               ; preds = %21, %13, %1
  %25 = phi i32 [ 1, %1 ], [ 0, %13 ], [ 1, %21 ]
  ret i32 %25
}

; Function Attrs: argmemonly mustprogress nofree nosync nounwind willreturn
declare void @llvm.lifetime.start.p0i8(i64 immarg, i8* nocapture) #1

; Function Attrs: argmemonly mustprogress nofree nounwind readonly willreturn
declare i64 @strlen(i8* nocapture) local_unnamed_addr #2

; Function Attrs: argmemonly mustprogress nofree nosync nounwind willreturn
declare void @llvm.lifetime.end.p0i8(i64 immarg, i8* nocapture) #1

; Function Attrs: nounwind sspstrong uwtable
define dso_local i32 @main() local_unnamed_addr #3 {
  %1 = alloca i32, align 4
  %2 = alloca [100 x [81 x i8]], align 16
  %3 = bitcast i32* %1 to i8*
  call void @llvm.lifetime.start.p0i8(i64 4, i8* nonnull %3) #9
  %4 = call i32 (i8*, ...) @__isoc99_scanf(i8* getelementptr inbounds ([3 x i8], [3 x i8]* @.str, i64 0, i64 0), i32* nonnull %1)
  %5 = load %struct._IO_FILE*, %struct._IO_FILE** @stdin, align 8, !tbaa !10
  %6 = call i32 @getc(%struct._IO_FILE* %5) #9
  %7 = getelementptr inbounds [100 x [81 x i8]], [100 x [81 x i8]]* %2, i64 0, i64 0, i64 0
  call void @llvm.lifetime.start.p0i8(i64 8100, i8* nonnull %7) #9
  call void @llvm.memset.p0i8.i64(i8* noundef nonnull align 16 dereferenceable(8100) %7, i8 0, i64 8100, i1 false)
  %8 = load i32, i32* %1, align 4, !tbaa !12
  %9 = icmp sgt i32 %8, 0
  br i1 %9, label %12, label %62

10:                                               ; preds = %12
  %11 = icmp sgt i32 %17, 0
  br i1 %11, label %20, label %62

12:                                               ; preds = %0, %12
  %13 = phi i64 [ %16, %12 ], [ 0, %0 ]
  %14 = getelementptr inbounds [100 x [81 x i8]], [100 x [81 x i8]]* %2, i64 0, i64 %13, i64 0
  %15 = call i32 (i8*, ...) bitcast (i32 (...)* @gets to i32 (i8*, ...)*)(i8* nonnull %14) #9
  %16 = add nuw nsw i64 %13, 1
  %17 = load i32, i32* %1, align 4, !tbaa !12
  %18 = sext i32 %17 to i64
  %19 = icmp slt i64 %16, %18
  br i1 %19, label %12, label %10, !llvm.loop !14

20:                                               ; preds = %10, %55
  %21 = phi i64 [ %58, %55 ], [ 0, %10 ]
  %22 = getelementptr inbounds [100 x [81 x i8]], [100 x [81 x i8]]* %2, i64 0, i64 %21, i64 0
  %23 = call i64 @strlen(i8* noundef nonnull dereferenceable(1) %22) #8
  %24 = trunc i64 %23 to i32
  %25 = icmp sgt i32 %24, 0
  br i1 %25, label %26, label %45

26:                                               ; preds = %20
  %27 = and i64 %23, 4294967295
  br label %28

28:                                               ; preds = %42, %26
  %29 = phi i64 [ 0, %26 ], [ %43, %42 ]
  %30 = getelementptr inbounds [100 x [81 x i8]], [100 x [81 x i8]]* %2, i64 0, i64 %21, i64 %29
  %31 = load i8, i8* %30, align 1, !tbaa !5
  %32 = add i8 %31, -97
  %33 = icmp ult i8 %32, 26
  br i1 %33, label %42, label %34

34:                                               ; preds = %28
  %35 = add i8 %31, -65
  %36 = icmp ult i8 %35, 26
  %37 = icmp eq i8 %31, 95
  %38 = or i1 %37, %36
  %39 = add i8 %31, -48
  %40 = icmp ult i8 %39, 10
  %41 = or i1 %40, %38
  br i1 %41, label %42, label %55

42:                                               ; preds = %34, %28
  %43 = add nuw nsw i64 %29, 1
  %44 = icmp eq i64 %43, %27
  br i1 %44, label %45, label %28, !llvm.loop !8

45:                                               ; preds = %42, %20
  %46 = load i8, i8* %22, align 1, !tbaa !5
  %47 = add i8 %46, -97
  %48 = icmp ult i8 %47, 26
  br i1 %48, label %55, label %49

49:                                               ; preds = %45
  %50 = add i8 %46, -65
  %51 = icmp ult i8 %50, 26
  br i1 %51, label %55, label %52

52:                                               ; preds = %49
  %53 = icmp eq i8 %46, 95
  %54 = select i1 %53, i8* getelementptr inbounds ([2 x i8], [2 x i8]* @str.6, i64 0, i64 0), i8* getelementptr inbounds ([2 x i8], [2 x i8]* @str.3, i64 0, i64 0)
  br label %55

55:                                               ; preds = %34, %52, %49, %45
  %56 = phi i8* [ getelementptr inbounds ([2 x i8], [2 x i8]* @str.6, i64 0, i64 0), %45 ], [ getelementptr inbounds ([2 x i8], [2 x i8]* @str.6, i64 0, i64 0), %49 ], [ %54, %52 ], [ getelementptr inbounds ([2 x i8], [2 x i8]* @str.3, i64 0, i64 0), %34 ]
  %57 = call i32 @puts(i8* nonnull dereferenceable(1) %56)
  %58 = add nuw nsw i64 %21, 1
  %59 = load i32, i32* %1, align 4, !tbaa !12
  %60 = sext i32 %59 to i64
  %61 = icmp slt i64 %58, %60
  br i1 %61, label %20, label %62, !llvm.loop !15

62:                                               ; preds = %55, %0, %10
  %63 = load %struct._IO_FILE*, %struct._IO_FILE** @stdin, align 8, !tbaa !10
  %64 = call i32 @getc(%struct._IO_FILE* %63) #9
  %65 = load %struct._IO_FILE*, %struct._IO_FILE** @stdin, align 8, !tbaa !10
  %66 = call i32 @getc(%struct._IO_FILE* %65) #9
  call void @llvm.lifetime.end.p0i8(i64 8100, i8* nonnull %7) #9
  call void @llvm.lifetime.end.p0i8(i64 4, i8* nonnull %3) #9
  ret i32 0
}

; Function Attrs: nofree nounwind
declare noundef i32 @__isoc99_scanf(i8* nocapture noundef readonly, ...) local_unnamed_addr #4

; Function Attrs: argmemonly mustprogress nofree nounwind willreturn writeonly
declare void @llvm.memset.p0i8.i64(i8* nocapture writeonly, i8, i64, i1 immarg) #5

declare i32 @gets(...) local_unnamed_addr #6

; Function Attrs: nofree nounwind
declare noundef i32 @getc(%struct._IO_FILE* nocapture noundef) local_unnamed_addr #4

; Function Attrs: nofree nounwind
declare noundef i32 @puts(i8* nocapture noundef readonly) local_unnamed_addr #7


!llvm.module.flags = !{!0, !1, !2, !3}
!llvm.ident = !{!4}

!0 = !{i32 1, !"wchar_size", i32 4}
!1 = !{i32 7, !"PIC Level", i32 2}
!2 = !{i32 7, !"PIE Level", i32 2}
!3 = !{i32 7, !"uwtable", i32 1}
!4 = !{!"clang version 13.0.0"}
!5 = !{!6, !6, i64 0}
!6 = !{!"omnipotent char", !7, i64 0}
!7 = !{!"Simple C/C++ TBAA"}
!8 = distinct !{!8, !9}
!9 = !{!"llvm.loop.mustprogress"}
!10 = !{!11, !11, i64 0}
!11 = !{!"any pointer", !6, i64 0}
!12 = !{!13, !13, i64 0}
!13 = !{!"int", !6, i64 0}
!14 = distinct !{!14, !9}
!15 = distinct !{!15, !9}
